target datalayout = "e-m:e-p270:32:32-p271:32:32-p272:64:64-i64:64-i128:128-f80:128-n8:16:32:64-S128"
target triple = "x86_64-pc-linux-gnu"

@.str = private unnamed_addr constant [39 x i8] c"property: safe<%d>\0Abug-free-depth: %d\0A\00", align 1

; Function Attrs: nounwind uwtable
define void @Gia_ManReportProgress(ptr noundef %0, i32 noundef %1, i32 noundef %2) #0 {
  %4 = alloca ptr, align 8
  %5 = alloca i32, align 4
  %6 = alloca i32, align 4
  %7 = alloca [100 x i8], align 16
  store ptr %0, ptr %4, align 8, !tbaa !3
  store i32 %1, ptr %5, align 4, !tbaa !8
  store i32 %2, ptr %6, align 4, !tbaa !8
  call void @llvm.lifetime.start.p0(i64 100, ptr %7) #11
  %8 = getelementptr inbounds [100 x i8], ptr %7, i64 0, i64 0
  %9 = load i32, ptr %5, align 4, !tbaa !8
  %10 = load i32, ptr %6, align 4, !tbaa !8
  %11 = call i32 (ptr, ptr, ...) @sprintf(ptr noundef %8, ptr noundef @.str, i32 noundef %9, i32 noundef %10) #11
  %12 = load ptr, ptr %4, align 8, !tbaa !3
  %13 = getelementptr inbounds [100 x i8], ptr %7, i64 0, i64 0
  %14 = call i64 @strlen(ptr noundef %13) #12
  %15 = trunc i64 %14 to i32
  %16 = getelementptr inbounds [100 x i8], ptr %7, i64 0, i64 0
  %17 = call i32 @Gia_ManToBridgeProgress(ptr noundef %12, i32 noundef %15, ptr noundef %16)
  call void @llvm.lifetime.end.p0(i64 100, ptr %7) #11
  ret void
}