; Function Attrs: nounwind uwtable
define void @Gia_ManReportProgress(ptr noundef %0, i32 noundef %1, i32 noundef %2) local_unnamed_addr #0 {
  %4 = alloca [100 x i8], align 16
  call void @llvm.lifetime.start.p0(i64 100, ptr nonnull %4) #24
  %5 = call i32 (ptr, ptr, ...) @sprintf(ptr noundef nonnull dereferenceable(1) %4, ptr noundef nonnull dereferenceable(1) @.str, i32 noundef %1, i32 noundef %2) #24
  %6 = call i64 @strlen(ptr noundef nonnull dereferenceable(1) %4) #25
  %7 = trunc i64 %6 to i32
  %8 = call i32 @Gia_ManToBridgeProgress(ptr noundef %0, i32 noundef %7, ptr noundef nonnull %4) #24
  call void @llvm.lifetime.end.p0(i64 100, ptr nonnull %4) #24
  ret void
}